; Function Attrs: nounwind uwtable
define dso_local void @XactLockTableDelete(i32 noundef %0) local_unnamed_addr #1 {
  %2 = alloca %struct.LOCKTAG, align 4
  call void @llvm.lifetime.start.p0(i64 16, ptr nonnull %2) #8
  store i32 %0, ptr %2, align 4
  %3 = getelementptr inbounds nuw i8, ptr %2, i64 4
  store i32 0, ptr %3, align 4
  %4 = getelementptr inbounds nuw i8, ptr %2, i64 8
  store i32 0, ptr %4, align 4
  %5 = getelementptr inbounds nuw i8, ptr %2, i64 12
  store i16 0, ptr %5, align 4
  %6 = getelementptr inbounds nuw i8, ptr %2, i64 14
  store i8 5, ptr %6, align 2
  %7 = getelementptr inbounds nuw i8, ptr %2, i64 15
  store i8 1, ptr %7, align 1
  %8 = call zeroext i1 @LockRelease(ptr noundef nonnull %2, i32 noundef 7, i1 noundef zeroext false) #8
  call void @llvm.lifetime.end.p0(i64 16, ptr nonnull %2) #8
  ret void
}